; Function Attrs: inlinehint nofree nounwind sspstrong memory(argmem: readwrite) uwtable
define internal fastcc nonnull ptr @ruby_nonempty_memcpy(ptr noundef nonnull %0, ptr noundef readonly captures(none) %1, i64 noundef %2) unnamed_addr #5 {
  %.not = icmp eq i64 %2, 0
  br i1 %.not, label %5, label %4

4:                                                ; preds = %3
  tail call void @llvm.memcpy.p0.p0.i64(ptr noundef nonnull align 1 %0, ptr noundef nonnull align 1 %1, i64 noundef range(i64 1, 0) %2, i1 noundef false) #9
  br label %5

5:                                                ; preds = %3, %4
  ret ptr %0
}